target datalayout = "e-m:e-p270:32:32-p271:32:32-p272:64:64-i64:64-i128:128-f80:128-n8:16:32:64-S128"
target triple = "x86_64-pc-linux-gnu"

%struct.CPpmd7z_RangeDec = type { %struct.IPpmd7_RangeDec, i32, i32, i32, i32, ptr }
%struct.IPpmd7_RangeDec = type { ptr, ptr, ptr }
%struct.IByteIn = type { ptr, ptr }

; Function Attrs: nounwind uwtable
define internal void @Range_Normalize(ptr noundef %0) #0 {
  %2 = alloca ptr, align 8
  store ptr %0, ptr %2, align 8, !tbaa !4
  br label %3

3:                                                ; preds = %1, %38
  %4 = load ptr, ptr %2, align 8, !tbaa !4
  %5 = getelementptr inbounds nuw %struct.CPpmd7z_RangeDec, ptr %4, i32 0, i32 3
  %6 = load i32, ptr %5, align 8, !tbaa !102
  %7 = load ptr, ptr %2, align 8, !tbaa !4
  %8 = getelementptr inbounds nuw %struct.CPpmd7z_RangeDec, ptr %7, i32 0, i32 3
  %9 = load i32, ptr %8, align 8, !tbaa !102
  %10 = load ptr, ptr %2, align 8, !tbaa !4
  %11 = getelementptr inbounds nuw %struct.CPpmd7z_RangeDec, ptr %10, i32 0, i32 1
  %12 = load i32, ptr %11, align 8, !tbaa !103
  %13 = add i32 %9, %12
  %14 = xor i32 %6, %13
  %15 = icmp uge i32 %14, 16777216
  br i1 %15, label %16, label %38

16:                                               ; preds = %3
  %17 = load ptr, ptr %2, align 8, !tbaa !4
  %18 = getelementptr inbounds nuw %struct.CPpmd7z_RangeDec, ptr %17, i32 0, i32 1
  %19 = load i32, ptr %18, align 8, !tbaa !103
  %20 = load ptr, ptr %2, align 8, !tbaa !4
  %21 = getelementptr inbounds nuw %struct.CPpmd7z_RangeDec, ptr %20, i32 0, i32 4
  %22 = load i32, ptr %21, align 4, !tbaa !37
  %23 = icmp uge i32 %19, %22
  br i1 %23, label %24, label %25

24:                                               ; preds = %16
  br label %64

25:                                               ; preds = %16
  %26 = load ptr, ptr %2, align 8, !tbaa !4
  %27 = getelementptr inbounds nuw %struct.CPpmd7z_RangeDec, ptr %26, i32 0, i32 3
  %28 = load i32, ptr %27, align 8, !tbaa !102
  %29 = sub nsw i32 0, %28
  %30 = load ptr, ptr %2, align 8, !tbaa !4
  %31 = getelementptr inbounds nuw %struct.CPpmd7z_RangeDec, ptr %30, i32 0, i32 4
  %32 = load i32, ptr %31, align 4, !tbaa !37
  %33 = sub i32 %32, 1
  %34 = and i32 %29, %33
  %35 = load ptr, ptr %2, align 8, !tbaa !4
  %36 = getelementptr inbounds nuw %struct.CPpmd7z_RangeDec, ptr %35, i32 0, i32 1
  store i32 %34, ptr %36, align 8, !tbaa !103
  br label %37

37:                                               ; preds = %25
  br label %38

38:                                               ; preds = %37, %3
  %39 = load ptr, ptr %2, align 8, !tbaa !4
  %40 = getelementptr inbounds nuw %struct.CPpmd7z_RangeDec, ptr %39, i32 0, i32 2
  %41 = load i32, ptr %40, align 4, !tbaa !101
  %42 = shl i32 %41, 8
  %43 = load ptr, ptr %2, align 8, !tbaa !4
  %44 = getelementptr inbounds nuw %struct.CPpmd7z_RangeDec, ptr %43, i32 0, i32 5
  %45 = load ptr, ptr %44, align 8, !tbaa !33
  %46 = getelementptr inbounds nuw %struct.IByteIn, ptr %45, i32 0, i32 1
  %47 = load ptr, ptr %46, align 8, !tbaa !34
  %48 = load ptr, ptr %2, align 8, !tbaa !4
  %49 = getelementptr inbounds nuw %struct.CPpmd7z_RangeDec, ptr %48, i32 0, i32 5
  %50 = load ptr, ptr %49, align 8, !tbaa !33
  %51 = call zeroext i8 %47(ptr noundef %50)
  %52 = zext i8 %51 to i32
  %53 = or i32 %42, %52
  %54 = load ptr, ptr %2, align 8, !tbaa !4
  %55 = getelementptr inbounds nuw %struct.CPpmd7z_RangeDec, ptr %54, i32 0, i32 2
  store i32 %53, ptr %55, align 4, !tbaa !101
  %56 = load ptr, ptr %2, align 8, !tbaa !4
  %57 = getelementptr inbounds nuw %struct.CPpmd7z_RangeDec, ptr %56, i32 0, i32 1
  %58 = load i32, ptr %57, align 8, !tbaa !103
  %59 = shl i32 %58, 8
  store i32 %59, ptr %57, align 8, !tbaa !103
  %60 = load ptr, ptr %2, align 8, !tbaa !4
  %61 = getelementptr inbounds nuw %struct.CPpmd7z_RangeDec, ptr %60, i32 0, i32 3
  %62 = load i32, ptr %61, align 8, !tbaa !102
  %63 = shl i32 %62, 8
  store i32 %63, ptr %61, align 8, !tbaa !102
  br label %3

64:                                               ; preds = %24
  ret void
}

; Function Attrs: nounwind uwtable
define internal i32 @Range_DecodeBit_7z(ptr noundef %0, i32 noundef %1) #0 {
  %3 = alloca ptr, align 8
  %4 = alloca i32, align 4
  %5 = alloca ptr, align 8
  %6 = alloca i32, align 4
  %7 = alloca i32, align 4
  store ptr %0, ptr %3, align 8, !tbaa !4
  store i32 %1, ptr %4, align 4, !tbaa !15
  call void @llvm.lifetime.start.p0(i64 8, ptr %5) #6
  %8 = load ptr, ptr %3, align 8, !tbaa !4
  store ptr %8, ptr %5, align 8, !tbaa !4
  call void @llvm.lifetime.start.p0(i64 4, ptr %6) #6
  %9 = load ptr, ptr %5, align 8, !tbaa !4
  %10 = getelementptr inbounds nuw %struct.CPpmd7z_RangeDec, ptr %9, i32 0, i32 1
  %11 = load i32, ptr %10, align 8, !tbaa !103
  %12 = lshr i32 %11, 14
  %13 = load i32, ptr %4, align 4, !tbaa !15
  %14 = mul i32 %12, %13
  store i32 %14, ptr %6, align 4, !tbaa !15
  call void @llvm.lifetime.start.p0(i64 4, ptr %7) #6
  %15 = load ptr, ptr %5, align 8, !tbaa !4
  %16 = getelementptr inbounds nuw %struct.CPpmd7z_RangeDec, ptr %15, i32 0, i32 2
  %17 = load i32, ptr %16, align 4, !tbaa !101
  %18 = load i32, ptr %6, align 4, !tbaa !15
  %19 = icmp ult i32 %17, %18
  br i1 %19, label %20, label %24

20:                                               ; preds = %2
  store i32 0, ptr %7, align 4, !tbaa !15
  %21 = load i32, ptr %6, align 4, !tbaa !15
  %22 = load ptr, ptr %5, align 8, !tbaa !4
  %23 = getelementptr inbounds nuw %struct.CPpmd7z_RangeDec, ptr %22, i32 0, i32 1
  store i32 %21, ptr %23, align 8, !tbaa !103
  br label %35

24:                                               ; preds = %2
  store i32 1, ptr %7, align 4, !tbaa !15
  %25 = load i32, ptr %6, align 4, !tbaa !15
  %26 = load ptr, ptr %5, align 8, !tbaa !4
  %27 = getelementptr inbounds nuw %struct.CPpmd7z_RangeDec, ptr %26, i32 0, i32 2
  %28 = load i32, ptr %27, align 4, !tbaa !101
  %29 = sub i32 %28, %25
  store i32 %29, ptr %27, align 4, !tbaa !101
  %30 = load i32, ptr %6, align 4, !tbaa !15
  %31 = load ptr, ptr %5, align 8, !tbaa !4
  %32 = getelementptr inbounds nuw %struct.CPpmd7z_RangeDec, ptr %31, i32 0, i32 1
  %33 = load i32, ptr %32, align 8, !tbaa !103
  %34 = sub i32 %33, %30
  store i32 %34, ptr %32, align 8, !tbaa !103
  br label %35

35:                                               ; preds = %24, %20
  %36 = load ptr, ptr %5, align 8, !tbaa !4
  call void @Range_Normalize(ptr noundef %36)
  %37 = load i32, ptr %7, align 4, !tbaa !15
  call void @llvm.lifetime.end.p0(i64 4, ptr %7) #6
  call void @llvm.lifetime.end.p0(i64 4, ptr %6) #6
  call void @llvm.lifetime.end.p0(i64 8, ptr %5) #6
  ret i32 %37
}