; Function Attrs: nounwind uwtable
define internal range(i32 0, 2) i32 @Range_DecodeBit_7z(ptr noundef captures(none) %0, i32 noundef %1) #4 {
  %3 = getelementptr inbounds nuw i8, ptr %0, i64 24
  %4 = load i32, ptr %3, align 8, !tbaa !37
  %5 = lshr i32 %4, 14
  %6 = mul i32 %5, %1
  %7 = getelementptr inbounds nuw i8, ptr %0, i64 28
  %8 = load i32, ptr %7, align 4, !tbaa !38
  %9 = icmp ult i32 %8, %6
  br i1 %9, label %13, label %10

10:                                               ; preds = %2
  %11 = sub nuw i32 %8, %6
  store i32 %11, ptr %7, align 4, !tbaa !38
  %12 = sub i32 %4, %6
  br label %13

13:                                               ; preds = %2, %10
  %14 = phi i32 [ %11, %10 ], [ %8, %2 ]
  %storemerge = phi i32 [ %12, %10 ], [ %6, %2 ]
  %.0 = phi i32 [ 1, %10 ], [ 0, %2 ]
  store i32 %storemerge, ptr %3, align 8, !tbaa !37
  %15 = getelementptr inbounds nuw i8, ptr %0, i64 36
  %16 = getelementptr inbounds nuw i8, ptr %0, i64 32
  %17 = getelementptr inbounds nuw i8, ptr %0, i64 40
  %.pre.i = load i32, ptr %16, align 8, !tbaa !36
  br label %18

18:                                               ; preds = %31, %13
  %19 = phi i32 [ %38, %31 ], [ %14, %13 ]
  %20 = phi i32 [ %40, %31 ], [ %storemerge, %13 ]
  %21 = phi i32 [ %42, %31 ], [ %.pre.i, %13 ]
  %22 = add i32 %21, %20
  %23 = xor i32 %22, %21
  %24 = icmp ugt i32 %23, 16777215
  br i1 %24, label %25, label %31

25:                                               ; preds = %18
  %26 = load i32, ptr %15, align 4, !tbaa !35
  %.not.i = icmp ult i32 %20, %26
  br i1 %.not.i, label %27, label %Range_Normalize.exit

27:                                               ; preds = %25
  %28 = sub nsw i32 0, %21
  %29 = add i32 %26, -1
  %30 = and i32 %29, %28
  store i32 %30, ptr %3, align 8, !tbaa !37
  br label %31

31:                                               ; preds = %27, %18
  %32 = shl i32 %19, 8
  %33 = load ptr, ptr %17, align 8, !tbaa !31
  %34 = getelementptr inbounds nuw i8, ptr %33, i64 8
  %35 = load ptr, ptr %34, align 8, !tbaa !32
  %36 = tail call zeroext i8 %35(ptr noundef %33) #13
  %37 = zext i8 %36 to i32
  %38 = or disjoint i32 %32, %37
  store i32 %38, ptr %7, align 4, !tbaa !38
  %39 = load i32, ptr %3, align 8, !tbaa !37
  %40 = shl i32 %39, 8
  store i32 %40, ptr %3, align 8, !tbaa !37
  %41 = load i32, ptr %16, align 8, !tbaa !36
  %42 = shl i32 %41, 8
  store i32 %42, ptr %16, align 8, !tbaa !36
  br label %18

Range_Normalize.exit:                             ; preds = %25
  ret i32 %.0
}